target datalayout = "e-m:e-p270:32:32-p271:32:32-p272:64:64-i64:64-f80:128-n8:16:32:64-S128"
target triple = "x86_64-pc-linux-gnu"

%struct.author = type { i32, [26 x i8] }

@.str = private unnamed_addr constant [4 x i8] c"%d\0A\00", align 1
@.str.1 = private unnamed_addr constant [3 x i8] c"%d\00", align 1
@ren = common dso_local global [100 x %struct.author] zeroinitializer, align 16
@.str.2 = private unnamed_addr constant [3 x i8] c"%s\00", align 1
@.str.3 = private unnamed_addr constant [4 x i8] c"%c\0A\00", align 1

; Function Attrs: noinline nounwind uwtable
define dso_local i32 @main() #0 {
  %1 = alloca i32, align 4
  %2 = alloca i32, align 4
  %3 = alloca i32, align 4
  %4 = alloca i32, align 4
  %5 = alloca i32, align 4
  %6 = alloca i32, align 4
  %7 = alloca i32, align 4
  %8 = alloca i32, align 4
  %9 = alloca [26 x i32], align 16
  %10 = alloca i32, align 4
  %11 = alloca [999 x i32], align 16
  store i32 0, i32* %1, align 4
  store i32 0, i32* %4, align 4
  store i32 0, i32* %5, align 4
  %12 = bitcast [26 x i32]* %9 to i8*
  call void @llvm.memset.p0i8.i64(i8* align 16 %12, i8 0, i64 104, i1 false)
  store i32 0, i32* %10, align 4
  %13 = call i32 (i8*, ...) @__isoc99_scanf(i8* getelementptr inbounds ([4 x i8], [4 x i8]* @.str, i64 0, i64 0), i32* %2)
  store i32 0, i32* %3, align 4
  br label %14

14:                                               ; preds = %31, %0
  %15 = load i32, i32* %3, align 4
  %16 = load i32, i32* %2, align 4
  %17 = sub nsw i32 %16, 1
  %18 = icmp sle i32 %15, %17
  br i1 %18, label %19, label %34

19:                                               ; preds = %14
  %20 = load i32, i32* %3, align 4
  %21 = sext i32 %20 to i64
  %22 = getelementptr inbounds [100 x %struct.author], [100 x %struct.author]* @ren, i64 0, i64 %21
  %23 = getelementptr inbounds %struct.author, %struct.author* %22, i32 0, i32 0
  %24 = call i32 (i8*, ...) @__isoc99_scanf(i8* getelementptr inbounds ([3 x i8], [3 x i8]* @.str.1, i64 0, i64 0), i32* %23)
  %25 = load i32, i32* %3, align 4
  %26 = sext i32 %25 to i64
  %27 = getelementptr inbounds [100 x %struct.author], [100 x %struct.author]* @ren, i64 0, i64 %26
  %28 = getelementptr inbounds %struct.author, %struct.author* %27, i32 0, i32 1
  %29 = getelementptr inbounds [26 x i8], [26 x i8]* %28, i64 0, i64 0
  %30 = call i32 (i8*, ...) @__isoc99_scanf(i8* getelementptr inbounds ([3 x i8], [3 x i8]* @.str.2, i64 0, i64 0), i8* %29)
  br label %31

31:                                               ; preds = %19
  %32 = load i32, i32* %3, align 4
  %33 = add nsw i32 %32, 1
  store i32 %33, i32* %3, align 4
  br label %14

34:                                               ; preds = %14
  store i32 0, i32* %3, align 4
  br label %35

35:                                               ; preds = %86, %34
  %36 = load i32, i32* %3, align 4
  %37 = icmp sle i32 %36, 25
  br i1 %37, label %38, label %89

38:                                               ; preds = %35
  store i32 0, i32* %4, align 4
  br label %39

39:                                               ; preds = %82, %38
  %40 = load i32, i32* %4, align 4
  %41 = load i32, i32* %2, align 4
  %42 = sub nsw i32 %41, 1
  %43 = icmp sle i32 %40, %42
  br i1 %43, label %44, label %85

44:                                               ; preds = %39
  store i32 0, i32* %5, align 4
  br label %45

45:                                               ; preds = %78, %44
  %46 = load i32, i32* %5, align 4
  %47 = sext i32 %46 to i64
  %48 = load i32, i32* %4, align 4
  %49 = sext i32 %48 to i64
  %50 = getelementptr inbounds [100 x %struct.author], [100 x %struct.author]* @ren, i64 0, i64 %49
  %51 = getelementptr inbounds %struct.author, %struct.author* %50, i32 0, i32 1
  %52 = getelementptr inbounds [26 x i8], [26 x i8]* %51, i64 0, i64 0
  %53 = call i64 @strlen(i8* %52) #4
  %54 = icmp ule i64 %47, %53
  br i1 %54, label %55, label %81

55:                                               ; preds = %45
  %56 = load i32, i32* %3, align 4
  %57 = add nsw i32 %56, 65
  %58 = load i32, i32* %4, align 4
  %59 = sext i32 %58 to i64
  %60 = getelementptr inbounds [100 x %struct.author], [100 x %struct.author]* @ren, i64 0, i64 %59
  %61 = getelementptr inbounds %struct.author, %struct.author* %60, i32 0, i32 1
  %62 = load i32, i32* %5, align 4
  %63 = sext i32 %62 to i64
  %64 = getelementptr inbounds [26 x i8], [26 x i8]* %61, i64 0, i64 %63
  %65 = load i8, i8* %64, align 1
  %66 = sext i8 %65 to i32
  %67 = icmp eq i32 %57, %66
  br i1 %67, label %68, label %77

68:                                               ; preds = %55
  %69 = load i32, i32* %3, align 4
  %70 = sext i32 %69 to i64
  %71 = getelementptr inbounds [26 x i32], [26 x i32]* %9, i64 0, i64 %70
  %72 = load i32, i32* %71, align 4
  %73 = add nsw i32 %72, 1
  %74 = load i32, i32* %3, align 4
  %75 = sext i32 %74 to i64
  %76 = getelementptr inbounds [26 x i32], [26 x i32]* %9, i64 0, i64 %75
  store i32 %73, i32* %76, align 4
  br label %77

77:                                               ; preds = %68, %55
  br label %78

78:                                               ; preds = %77
  %79 = load i32, i32* %5, align 4
  %80 = add nsw i32 %79, 1
  store i32 %80, i32* %5, align 4
  br label %45

81:                                               ; preds = %45
  br label %82

82:                                               ; preds = %81
  %83 = load i32, i32* %4, align 4
  %84 = add nsw i32 %83, 1
  store i32 %84, i32* %4, align 4
  br label %39

85:                                               ; preds = %39
  br label %86

86:                                               ; preds = %85
  %87 = load i32, i32* %3, align 4
  %88 = add nsw i32 %87, 1
  store i32 %88, i32* %3, align 4
  br label %35

89:                                               ; preds = %35
  store i32 0, i32* %3, align 4
  br label %90

90:                                               ; preds = %107, %89
  %91 = load i32, i32* %3, align 4
  %92 = icmp sle i32 %91, 25
  br i1 %92, label %93, label %110

93:                                               ; preds = %90
  %94 = load i32, i32* %10, align 4
  %95 = load i32, i32* %3, align 4
  %96 = sext i32 %95 to i64
  %97 = getelementptr inbounds [26 x i32], [26 x i32]* %9, i64 0, i64 %96
  %98 = load i32, i32* %97, align 4
  %99 = icmp slt i32 %94, %98
  br i1 %99, label %100, label %106

100:                                              ; preds = %93
  %101 = load i32, i32* %3, align 4
  %102 = sext i32 %101 to i64
  %103 = getelementptr inbounds [26 x i32], [26 x i32]* %9, i64 0, i64 %102
  %104 = load i32, i32* %103, align 4
  store i32 %104, i32* %10, align 4
  %105 = load i32, i32* %3, align 4
  store i32 %105, i32* %6, align 4
  br label %106

106:                                              ; preds = %100, %93
  br label %107

107:                                              ; preds = %106
  %108 = load i32, i32* %3, align 4
  %109 = add nsw i32 %108, 1
  store i32 %109, i32* %3, align 4
  br label %90

110:                                              ; preds = %90
  %111 = load i32, i32* %6, align 4
  %112 = add nsw i32 65, %111
  store i32 %112, i32* %7, align 4
  store i32 0, i32* %8, align 4
  store i32 0, i32* %3, align 4
  br label %113

113:                                              ; preds = %157, %110
  %114 = load i32, i32* %3, align 4
  %115 = load i32, i32* %2, align 4
  %116 = sub nsw i32 %115, 1
  %117 = icmp sle i32 %114, %116
  br i1 %117, label %118, label %160

118:                                              ; preds = %113
  store i32 0, i32* %5, align 4
  br label %119

119:                                              ; preds = %153, %118
  %120 = load i32, i32* %5, align 4
  %121 = sext i32 %120 to i64
  %122 = load i32, i32* %3, align 4
  %123 = sext i32 %122 to i64
  %124 = getelementptr inbounds [100 x %struct.author], [100 x %struct.author]* @ren, i64 0, i64 %123
  %125 = getelementptr inbounds %struct.author, %struct.author* %124, i32 0, i32 1
  %126 = getelementptr inbounds [26 x i8], [26 x i8]* %125, i64 0, i64 0
  %127 = call i64 @strlen(i8* %126) #4
  %128 = icmp ule i64 %121, %127
  br i1 %128, label %129, label %156

129:                                              ; preds = %119
  %130 = load i32, i32* %7, align 4
  %131 = load i32, i32* %3, align 4
  %132 = sext i32 %131 to i64
  %133 = getelementptr inbounds [100 x %struct.author], [100 x %struct.author]* @ren, i64 0, i64 %132
  %134 = getelementptr inbounds %struct.author, %struct.author* %133, i32 0, i32 1
  %135 = load i32, i32* %5, align 4
  %136 = sext i32 %135 to i64
  %137 = getelementptr inbounds [26 x i8], [26 x i8]* %134, i64 0, i64 %136
  %138 = load i8, i8* %137, align 1
  %139 = sext i8 %138 to i32
  %140 = icmp eq i32 %130, %139
  br i1 %140, label %141, label %152

141:                                              ; preds = %129
  %142 = load i32, i32* %3, align 4
  %143 = sext i32 %142 to i64
  %144 = getelementptr inbounds [100 x %struct.author], [100 x %struct.author]* @ren, i64 0, i64 %143
  %145 = getelementptr inbounds %struct.author, %struct.author* %144, i32 0, i32 0
  %146 = load i32, i32* %145, align 16
  %147 = load i32, i32* %8, align 4
  %148 = sext i32 %147 to i64
  %149 = getelementptr inbounds [999 x i32], [999 x i32]* %11, i64 0, i64 %148
  store i32 %146, i32* %149, align 4
  %150 = load i32, i32* %8, align 4
  %151 = add nsw i32 %150, 1
  store i32 %151, i32* %8, align 4
  br label %156

152:                                              ; preds = %129
  br label %153

153:                                              ; preds = %152
  %154 = load i32, i32* %5, align 4
  %155 = add nsw i32 %154, 1
  store i32 %155, i32* %5, align 4
  br label %119

156:                                              ; preds = %141, %119
  br label %157

157:                                              ; preds = %156
  %158 = load i32, i32* %3, align 4
  %159 = add nsw i32 %158, 1
  store i32 %159, i32* %3, align 4
  br label %113

160:                                              ; preds = %113
  %161 = load i32, i32* %7, align 4
  %162 = call i32 (i8*, ...) @printf(i8* getelementptr inbounds ([4 x i8], [4 x i8]* @.str.3, i64 0, i64 0), i32 %161)
  %163 = load i32, i32* %8, align 4
  %164 = call i32 (i8*, ...) @printf(i8* getelementptr inbounds ([4 x i8], [4 x i8]* @.str, i64 0, i64 0), i32 %163)
  store i32 0, i32* %3, align 4
  br label %165

165:                                              ; preds = %176, %160
  %166 = load i32, i32* %3, align 4
  %167 = load i32, i32* %8, align 4
  %168 = sub nsw i32 %167, 1
  %169 = icmp sle i32 %166, %168
  br i1 %169, label %170, label %179

170:                                              ; preds = %165
  %171 = load i32, i32* %3, align 4
  %172 = sext i32 %171 to i64
  %173 = getelementptr inbounds [999 x i32], [999 x i32]* %11, i64 0, i64 %172
  %174 = load i32, i32* %173, align 4
  %175 = call i32 (i8*, ...) @printf(i8* getelementptr inbounds ([4 x i8], [4 x i8]* @.str, i64 0, i64 0), i32 %174)
  br label %176

176:                                              ; preds = %170
  %177 = load i32, i32* %3, align 4
  %178 = add nsw i32 %177, 1
  store i32 %178, i32* %3, align 4
  br label %165

179:                                              ; preds = %165
  %180 = call i32 @getchar()
  %181 = load i32, i32* %1, align 4
  ret i32 %181
}